; Function Attrs: mustprogress nounwind uwtable
define internal void @_ZN32pxrInternal_v0_24__pxrReserved__12_GLOBAL__N_115_BoundsDrawMode25_BoundsPrimvarsDataSourceD0Ev(ptr noundef nonnull align 8 dereferenceable(24) %0) unnamed_addr #0 align 2 personality ptr @__gxx_personality_v0 {
  store ptr getelementptr inbounds inrange(-16, 32) (i8, ptr @_ZTVN32pxrInternal_v0_24__pxrReserved__12_GLOBAL__N_119_PrimvarsDataSourceE, i64 16), ptr %0, align 8
  %2 = getelementptr inbounds i8, ptr %0, i64 16
  %3 = load ptr, ptr %2, align 8
  %.not.i.i.i.i.i = icmp eq ptr %3, null
  br i1 %.not.i.i.i.i.i, label %_ZN32pxrInternal_v0_24__pxrReserved__12_GLOBAL__N_115_BoundsDrawMode25_BoundsPrimvarsDataSourceD2Ev.exit, label %4

4:                                                ; preds = %1
  %5 = getelementptr inbounds nuw i8, ptr %3, i64 8
  %6 = load atomic i64, ptr %5 acquire, align 8
  %7 = icmp eq i64 %6, 4294967297
  %8 = trunc i64 %6 to i32
  br i1 %7, label %9, label %14

9:                                                ; preds = %4
  store i32 0, ptr %5, align 8
  %10 = getelementptr inbounds nuw i8, ptr %3, i64 12
  store i32 0, ptr %10, align 4
  %11 = load ptr, ptr %3, align 8
  %12 = getelementptr inbounds i8, ptr %11, i64 16
  %13 = load ptr, ptr %12, align 8
  tail call void %13(ptr noundef nonnull align 8 dereferenceable(16) %3) #28
  br label %_ZNSt16_Sp_counted_baseILN9__gnu_cxx12_Lock_policyE2EE24_M_release_last_use_coldEv.exit.sink.split.i.i.i.i.i.i

14:                                               ; preds = %4
  %15 = load i8, ptr @__libc_single_threaded, align 1
  %.not.i.i.i.i.i.i = icmp eq i8 %15, 0
  br i1 %.not.i.i.i.i.i.i, label %18, label %16

16:                                               ; preds = %14
  %17 = add nsw i32 %8, -1
  store i32 %17, ptr %5, align 4
  br label %20

18:                                               ; preds = %14
  %19 = atomicrmw volatile add ptr %5, i32 -1 acq_rel, align 4
  br label %20

20:                                               ; preds = %18, %16
  %.0.i.i.i.i.i.i = phi i32 [ %8, %16 ], [ %19, %18 ]
  %21 = icmp eq i32 %.0.i.i.i.i.i.i, 1
  br i1 %21, label %22, label %_ZN32pxrInternal_v0_24__pxrReserved__12_GLOBAL__N_115_BoundsDrawMode25_BoundsPrimvarsDataSourceD2Ev.exit

22:                                               ; preds = %20
  %23 = load ptr, ptr %3, align 8
  %24 = getelementptr inbounds i8, ptr %23, i64 16
  %25 = load ptr, ptr %24, align 8
  tail call void %25(ptr noundef nonnull align 8 dereferenceable(16) %3) #28
  %26 = getelementptr inbounds nuw i8, ptr %3, i64 12
  %27 = load i8, ptr @__libc_single_threaded, align 1
  %.not.i.i.i.i.i.i.i.i = icmp eq i8 %27, 0
  br i1 %.not.i.i.i.i.i.i.i.i, label %31, label %28

28:                                               ; preds = %22
  %29 = load i32, ptr %26, align 4
  %30 = add nsw i32 %29, -1
  store i32 %30, ptr %26, align 4
  br label %33

31:                                               ; preds = %22
  %32 = atomicrmw volatile add ptr %26, i32 -1 acq_rel, align 4
  br label %33

33:                                               ; preds = %31, %28
  %.0.i.i.i.i.i.i.i.i = phi i32 [ %29, %28 ], [ %32, %31 ]
  %34 = icmp eq i32 %.0.i.i.i.i.i.i.i.i, 1
  br i1 %34, label %_ZNSt16_Sp_counted_baseILN9__gnu_cxx12_Lock_policyE2EE24_M_release_last_use_coldEv.exit.sink.split.i.i.i.i.i.i, label %_ZN32pxrInternal_v0_24__pxrReserved__12_GLOBAL__N_115_BoundsDrawMode25_BoundsPrimvarsDataSourceD2Ev.exit

_ZNSt16_Sp_counted_baseILN9__gnu_cxx12_Lock_policyE2EE24_M_release_last_use_coldEv.exit.sink.split.i.i.i.i.i.i: ; preds = %33, %9
  %35 = load ptr, ptr %3, align 8
  %36 = getelementptr inbounds i8, ptr %35, i64 24
  %37 = load ptr, ptr %36, align 8
  tail call void %37(ptr noundef nonnull align 8 dereferenceable(16) %3) #28
  br label %_ZN32pxrInternal_v0_24__pxrReserved__12_GLOBAL__N_115_BoundsDrawMode25_BoundsPrimvarsDataSourceD2Ev.exit

_ZN32pxrInternal_v0_24__pxrReserved__12_GLOBAL__N_115_BoundsDrawMode25_BoundsPrimvarsDataSourceD2Ev.exit: ; preds = %1, %20, %33, %_ZNSt16_Sp_counted_baseILN9__gnu_cxx12_Lock_policyE2EE24_M_release_last_use_coldEv.exit.sink.split.i.i.i.i.i.i
  tail call void @_ZN32pxrInternal_v0_24__pxrReserved__16HdDataSourceBaseD2Ev(ptr noundef nonnull align 8 dereferenceable(8) %0) #28
  tail call void @_ZdlPvm(ptr noundef nonnull %0, i64 noundef 24) #32
  ret void
}